ccopy_reg
_reconstructor
p0
(cgoogle.oauth2.credentials
Credentials
p1
c__builtin__
object
p2
Ntp3
Rp4
(dp5
S'_token_uri'
p6
Vhttps://oauth2.googleapis.com/token
p7
sS'_scopes'
p8
(lp9
S'https://www.googleapis.com/auth/drive'
p10
asS'_id_token'
p11
NsS'token'
p12
Vya29.GlyXBhUjlqQCcrKNdmeTQPdiILp9es8V8kReNCpHXRDxlRUzI3NWwVTWhwYWAZxrwL_LhkLcmDSve-pJT5TiNIHiOK2L6OiK65rWKGH6h38KgIPN_eRut_aLkIb_Gw
p13
sS'_refresh_token'
p14
V1/MhHC3cOlXmo4HUTHUk1h9ortgadsL8IGxPI_wh7PRS_nykYBEF3FuekwPZME9xYH
p15
sS'_client_secret'
p16
VWamiIfyDn8mAVawAPekrCJDY
p17
sS'_client_id'
p18
V497070979115-kbb1joksins6d6vrdg4kfnav0mei3423.apps.googleusercontent.com
p19
sS'expiry'
p20
cdatetime
datetime
p21
(S'\x07\xe3\x01\x14\x0f\x19&\x0b\x05w'
p22
tp23
Rp24
sb.