ccopy_reg
_reconstructor
p0
(cgoogle.oauth2.credentials
Credentials
p1
c__builtin__
object
p2
Ntp3
Rp4
(dp5
S'_token_uri'
p6
Vhttps://oauth2.googleapis.com/token
p7
sS'_scopes'
p8
(lp9
S'https://www.googleapis.com/auth/drive'
p10
asS'_id_token'
p11
NsS'token'
p12
Vya29.GlyXBldoaln1gocjSv7yf-EJWalsMiiQKi69mrACMZsPWk_EfUf04yXkPy5MLZVSXj4k_rUCP6uWMqqJFBTQeA-Yc5iMj5P3ynmal3sJPYCFuixx_SZgVueCqIBwiA
p13
sS'_refresh_token'
p14
V1/MhHC3cOlXmo4HUTHUk1h9ortgadsL8IGxPI_wh7PRS_nykYBEF3FuekwPZME9xYH
p15
sS'_client_secret'
p16
VWamiIfyDn8mAVawAPekrCJDY
p17
sS'_client_id'
p18
V497070979115-kbb1joksins6d6vrdg4kfnav0mei3423.apps.googleusercontent.com
p19
sS'expiry'
p20
cdatetime
datetime
p21
(S'\x07\xe3\x01\x14\x07:1\x08x\xff'
p22
tp23
Rp24
sb.